
server:     file format elf64-x86-64


Disassembly of section .init:

00000000004006f0 <_init>:
  4006f0:	48 83 ec 08          	sub    $0x8,%rsp
  4006f4:	48 8b 05 fd 18 20 00 	mov    0x2018fd(%rip),%rax        # 601ff8 <_DYNAMIC+0x1d0>
  4006fb:	48 85 c0             	test   %rax,%rax
  4006fe:	74 05                	je     400705 <_init+0x15>
  400700:	e8 fb 00 00 00       	callq  400800 <socket@plt+0x10>
  400705:	48 83 c4 08          	add    $0x8,%rsp
  400709:	c3                   	retq   

Disassembly of section .plt:

0000000000400710 <strlen@plt-0x10>:
  400710:	ff 35 f2 18 20 00    	pushq  0x2018f2(%rip)        # 602008 <_GLOBAL_OFFSET_TABLE_+0x8>
  400716:	ff 25 f4 18 20 00    	jmpq   *0x2018f4(%rip)        # 602010 <_GLOBAL_OFFSET_TABLE_+0x10>
  40071c:	0f 1f 40 00          	nopl   0x0(%rax)

0000000000400720 <strlen@plt>:
  400720:	ff 25 f2 18 20 00    	jmpq   *0x2018f2(%rip)        # 602018 <_GLOBAL_OFFSET_TABLE_+0x18>
  400726:	68 00 00 00 00       	pushq  $0x0
  40072b:	e9 e0 ff ff ff       	jmpq   400710 <_init+0x20>

0000000000400730 <__stack_chk_fail@plt>:
  400730:	ff 25 ea 18 20 00    	jmpq   *0x2018ea(%rip)        # 602020 <_GLOBAL_OFFSET_TABLE_+0x20>
  400736:	68 01 00 00 00       	pushq  $0x1
  40073b:	e9 d0 ff ff ff       	jmpq   400710 <_init+0x20>

0000000000400740 <htons@plt>:
  400740:	ff 25 e2 18 20 00    	jmpq   *0x2018e2(%rip)        # 602028 <_GLOBAL_OFFSET_TABLE_+0x28>
  400746:	68 02 00 00 00       	pushq  $0x2
  40074b:	e9 c0 ff ff ff       	jmpq   400710 <_init+0x20>

0000000000400750 <printf@plt>:
  400750:	ff 25 da 18 20 00    	jmpq   *0x2018da(%rip)        # 602030 <_GLOBAL_OFFSET_TABLE_+0x30>
  400756:	68 03 00 00 00       	pushq  $0x3
  40075b:	e9 b0 ff ff ff       	jmpq   400710 <_init+0x20>

0000000000400760 <sendto@plt>:
  400760:	ff 25 d2 18 20 00    	jmpq   *0x2018d2(%rip)        # 602038 <_GLOBAL_OFFSET_TABLE_+0x38>
  400766:	68 04 00 00 00       	pushq  $0x4
  40076b:	e9 a0 ff ff ff       	jmpq   400710 <_init+0x20>

0000000000400770 <__libc_start_main@plt>:
  400770:	ff 25 ca 18 20 00    	jmpq   *0x2018ca(%rip)        # 602040 <_GLOBAL_OFFSET_TABLE_+0x40>
  400776:	68 05 00 00 00       	pushq  $0x5
  40077b:	e9 90 ff ff ff       	jmpq   400710 <_init+0x20>

0000000000400780 <gethostbyname@plt>:
  400780:	ff 25 c2 18 20 00    	jmpq   *0x2018c2(%rip)        # 602048 <_GLOBAL_OFFSET_TABLE_+0x48>
  400786:	68 06 00 00 00       	pushq  $0x6
  40078b:	e9 80 ff ff ff       	jmpq   400710 <_init+0x20>

0000000000400790 <fprintf@plt>:
  400790:	ff 25 ba 18 20 00    	jmpq   *0x2018ba(%rip)        # 602050 <_GLOBAL_OFFSET_TABLE_+0x50>
  400796:	68 07 00 00 00       	pushq  $0x7
  40079b:	e9 70 ff ff ff       	jmpq   400710 <_init+0x20>

00000000004007a0 <recvfrom@plt>:
  4007a0:	ff 25 b2 18 20 00    	jmpq   *0x2018b2(%rip)        # 602058 <_GLOBAL_OFFSET_TABLE_+0x58>
  4007a6:	68 08 00 00 00       	pushq  $0x8
  4007ab:	e9 60 ff ff ff       	jmpq   400710 <_init+0x20>

00000000004007b0 <bcopy@plt>:
  4007b0:	ff 25 aa 18 20 00    	jmpq   *0x2018aa(%rip)        # 602060 <_GLOBAL_OFFSET_TABLE_+0x60>
  4007b6:	68 09 00 00 00       	pushq  $0x9
  4007bb:	e9 50 ff ff ff       	jmpq   400710 <_init+0x20>

00000000004007c0 <perror@plt>:
  4007c0:	ff 25 a2 18 20 00    	jmpq   *0x2018a2(%rip)        # 602068 <_GLOBAL_OFFSET_TABLE_+0x68>
  4007c6:	68 0a 00 00 00       	pushq  $0xa
  4007cb:	e9 40 ff ff ff       	jmpq   400710 <_init+0x20>

00000000004007d0 <bzero@plt>:
  4007d0:	ff 25 9a 18 20 00    	jmpq   *0x20189a(%rip)        # 602070 <_GLOBAL_OFFSET_TABLE_+0x70>
  4007d6:	68 0b 00 00 00       	pushq  $0xb
  4007db:	e9 30 ff ff ff       	jmpq   400710 <_init+0x20>

00000000004007e0 <exit@plt>:
  4007e0:	ff 25 92 18 20 00    	jmpq   *0x201892(%rip)        # 602078 <_GLOBAL_OFFSET_TABLE_+0x78>
  4007e6:	68 0c 00 00 00       	pushq  $0xc
  4007eb:	e9 20 ff ff ff       	jmpq   400710 <_init+0x20>

00000000004007f0 <socket@plt>:
  4007f0:	ff 25 8a 18 20 00    	jmpq   *0x20188a(%rip)        # 602080 <_GLOBAL_OFFSET_TABLE_+0x80>
  4007f6:	68 0d 00 00 00       	pushq  $0xd
  4007fb:	e9 10 ff ff ff       	jmpq   400710 <_init+0x20>

Disassembly of section .plt.got:

0000000000400800 <.plt.got>:
  400800:	ff 25 f2 17 20 00    	jmpq   *0x2017f2(%rip)        # 601ff8 <_DYNAMIC+0x1d0>
  400806:	66 90                	xchg   %ax,%ax

Disassembly of section .text:

0000000000400810 <_start>:
  400810:	31 ed                	xor    %ebp,%ebp
  400812:	49 89 d1             	mov    %rdx,%r9
  400815:	5e                   	pop    %rsi
  400816:	48 89 e2             	mov    %rsp,%rdx
  400819:	48 83 e4 f0          	and    $0xfffffffffffffff0,%rsp
  40081d:	50                   	push   %rax
  40081e:	54                   	push   %rsp
  40081f:	49 c7 c0 10 0d 40 00 	mov    $0x400d10,%r8
  400826:	48 c7 c1 a0 0c 40 00 	mov    $0x400ca0,%rcx
  40082d:	48 c7 c7 28 09 40 00 	mov    $0x400928,%rdi
  400834:	e8 37 ff ff ff       	callq  400770 <__libc_start_main@plt>
  400839:	f4                   	hlt    
  40083a:	66 0f 1f 44 00 00    	nopw   0x0(%rax,%rax,1)

0000000000400840 <deregister_tm_clones>:
  400840:	b8 9f 20 60 00       	mov    $0x60209f,%eax
  400845:	55                   	push   %rbp
  400846:	48 2d 98 20 60 00    	sub    $0x602098,%rax
  40084c:	48 83 f8 0e          	cmp    $0xe,%rax
  400850:	48 89 e5             	mov    %rsp,%rbp
  400853:	76 1b                	jbe    400870 <deregister_tm_clones+0x30>
  400855:	b8 00 00 00 00       	mov    $0x0,%eax
  40085a:	48 85 c0             	test   %rax,%rax
  40085d:	74 11                	je     400870 <deregister_tm_clones+0x30>
  40085f:	5d                   	pop    %rbp
  400860:	bf 98 20 60 00       	mov    $0x602098,%edi
  400865:	ff e0                	jmpq   *%rax
  400867:	66 0f 1f 84 00 00 00 	nopw   0x0(%rax,%rax,1)
  40086e:	00 00 
  400870:	5d                   	pop    %rbp
  400871:	c3                   	retq   
  400872:	0f 1f 40 00          	nopl   0x0(%rax)
  400876:	66 2e 0f 1f 84 00 00 	nopw   %cs:0x0(%rax,%rax,1)
  40087d:	00 00 00 

0000000000400880 <register_tm_clones>:
  400880:	be 98 20 60 00       	mov    $0x602098,%esi
  400885:	55                   	push   %rbp
  400886:	48 81 ee 98 20 60 00 	sub    $0x602098,%rsi
  40088d:	48 c1 fe 03          	sar    $0x3,%rsi
  400891:	48 89 e5             	mov    %rsp,%rbp
  400894:	48 89 f0             	mov    %rsi,%rax
  400897:	48 c1 e8 3f          	shr    $0x3f,%rax
  40089b:	48 01 c6             	add    %rax,%rsi
  40089e:	48 d1 fe             	sar    %rsi
  4008a1:	74 15                	je     4008b8 <register_tm_clones+0x38>
  4008a3:	b8 00 00 00 00       	mov    $0x0,%eax
  4008a8:	48 85 c0             	test   %rax,%rax
  4008ab:	74 0b                	je     4008b8 <register_tm_clones+0x38>
  4008ad:	5d                   	pop    %rbp
  4008ae:	bf 98 20 60 00       	mov    $0x602098,%edi
  4008b3:	ff e0                	jmpq   *%rax
  4008b5:	0f 1f 00             	nopl   (%rax)
  4008b8:	5d                   	pop    %rbp
  4008b9:	c3                   	retq   
  4008ba:	66 0f 1f 44 00 00    	nopw   0x0(%rax,%rax,1)

00000000004008c0 <__do_global_dtors_aux>:
  4008c0:	80 3d e1 17 20 00 00 	cmpb   $0x0,0x2017e1(%rip)        # 6020a8 <completed.7585>
  4008c7:	75 11                	jne    4008da <__do_global_dtors_aux+0x1a>
  4008c9:	55                   	push   %rbp
  4008ca:	48 89 e5             	mov    %rsp,%rbp
  4008cd:	e8 6e ff ff ff       	callq  400840 <deregister_tm_clones>
  4008d2:	5d                   	pop    %rbp
  4008d3:	c6 05 ce 17 20 00 01 	movb   $0x1,0x2017ce(%rip)        # 6020a8 <completed.7585>
  4008da:	f3 c3                	repz retq 
  4008dc:	0f 1f 40 00          	nopl   0x0(%rax)

00000000004008e0 <frame_dummy>:
  4008e0:	bf 20 1e 60 00       	mov    $0x601e20,%edi
  4008e5:	48 83 3f 00          	cmpq   $0x0,(%rdi)
  4008e9:	75 05                	jne    4008f0 <frame_dummy+0x10>
  4008eb:	eb 93                	jmp    400880 <register_tm_clones>
  4008ed:	0f 1f 00             	nopl   (%rax)
  4008f0:	b8 00 00 00 00       	mov    $0x0,%eax
  4008f5:	48 85 c0             	test   %rax,%rax
  4008f8:	74 f1                	je     4008eb <frame_dummy+0xb>
  4008fa:	55                   	push   %rbp
  4008fb:	48 89 e5             	mov    %rsp,%rbp
  4008fe:	ff d0                	callq  *%rax
  400900:	5d                   	pop    %rbp
  400901:	e9 7a ff ff ff       	jmpq   400880 <register_tm_clones>

0000000000400906 <error>:
  400906:	55                   	push   %rbp
  400907:	48 89 e5             	mov    %rsp,%rbp
  40090a:	48 83 ec 10          	sub    $0x10,%rsp
  40090e:	48 89 7d f8          	mov    %rdi,-0x8(%rbp)
  400912:	48 8b 45 f8          	mov    -0x8(%rbp),%rax
  400916:	48 89 c7             	mov    %rax,%rdi
  400919:	e8 a2 fe ff ff       	callq  4007c0 <perror@plt>
  40091e:	bf 00 00 00 00       	mov    $0x0,%edi
  400923:	e8 b8 fe ff ff       	callq  4007e0 <exit@plt>

0000000000400928 <main>:
  400928:	55                   	push   %rbp
  400929:	48 89 e5             	mov    %rsp,%rbp
  40092c:	48 81 ec 60 04 00 00 	sub    $0x460,%rsp
  400933:	89 bd ac fb ff ff    	mov    %edi,-0x454(%rbp)
  400939:	48 89 b5 a0 fb ff ff 	mov    %rsi,-0x460(%rbp)
  400940:	64 48 8b 04 25 28 00 	mov    %fs:0x28,%rax
  400947:	00 00 
  400949:	48 89 45 f8          	mov    %rax,-0x8(%rbp)
  40094d:	31 c0                	xor    %eax,%eax
  40094f:	48 c7 85 d0 fb ff ff 	movq   $0x400d24,-0x430(%rbp)
  400956:	24 0d 40 00 
  40095a:	c7 85 c0 fb ff ff 58 	movl   $0x9858,-0x440(%rbp)
  400961:	98 00 00 
  400964:	ba 00 00 00 00       	mov    $0x0,%edx
  400969:	be 02 00 00 00       	mov    $0x2,%esi
  40096e:	bf 02 00 00 00       	mov    $0x2,%edi
  400973:	e8 78 fe ff ff       	callq  4007f0 <socket@plt>
  400978:	89 85 c4 fb ff ff    	mov    %eax,-0x43c(%rbp)
  40097e:	83 bd c4 fb ff ff 00 	cmpl   $0x0,-0x43c(%rbp)
  400985:	79 0a                	jns    400991 <main+0x69>
  400987:	bf 2e 0d 40 00       	mov    $0x400d2e,%edi
  40098c:	e8 75 ff ff ff       	callq  400906 <error>
  400991:	48 8b 85 d0 fb ff ff 	mov    -0x430(%rbp),%rax
  400998:	48 89 c7             	mov    %rax,%rdi
  40099b:	e8 e0 fd ff ff       	callq  400780 <gethostbyname@plt>
  4009a0:	48 89 85 d8 fb ff ff 	mov    %rax,-0x428(%rbp)
  4009a7:	48 83 bd d8 fb ff ff 	cmpq   $0x0,-0x428(%rbp)
  4009ae:	00 
  4009af:	75 2a                	jne    4009db <main+0xb3>
  4009b1:	48 8b 05 e8 16 20 00 	mov    0x2016e8(%rip),%rax        # 6020a0 <stderr@@GLIBC_2.2.5>
  4009b8:	48 8b 95 d0 fb ff ff 	mov    -0x430(%rbp),%rdx
  4009bf:	be 43 0d 40 00       	mov    $0x400d43,%esi
  4009c4:	48 89 c7             	mov    %rax,%rdi
  4009c7:	b8 00 00 00 00       	mov    $0x0,%eax
  4009cc:	e8 bf fd ff ff       	callq  400790 <fprintf@plt>
  4009d1:	bf 00 00 00 00       	mov    $0x0,%edi
  4009d6:	e8 05 fe ff ff       	callq  4007e0 <exit@plt>
  4009db:	48 8d 85 e0 fb ff ff 	lea    -0x420(%rbp),%rax
  4009e2:	be 10 00 00 00       	mov    $0x10,%esi
  4009e7:	48 89 c7             	mov    %rax,%rdi
  4009ea:	e8 e1 fd ff ff       	callq  4007d0 <bzero@plt>
  4009ef:	66 c7 85 e0 fb ff ff 	movw   $0x2,-0x420(%rbp)
  4009f6:	02 00 
  4009f8:	48 8b 85 d8 fb ff ff 	mov    -0x428(%rbp),%rax
  4009ff:	8b 40 14             	mov    0x14(%rax),%eax
  400a02:	48 63 d0             	movslq %eax,%rdx
  400a05:	48 8b 85 d8 fb ff ff 	mov    -0x428(%rbp),%rax
  400a0c:	48 8b 40 18          	mov    0x18(%rax),%rax
  400a10:	48 8b 00             	mov    (%rax),%rax
  400a13:	48 8d 8d e0 fb ff ff 	lea    -0x420(%rbp),%rcx
  400a1a:	48 83 c1 04          	add    $0x4,%rcx
  400a1e:	48 89 ce             	mov    %rcx,%rsi
  400a21:	48 89 c7             	mov    %rax,%rdi
  400a24:	e8 87 fd ff ff       	callq  4007b0 <bcopy@plt>
  400a29:	8b 85 c0 fb ff ff    	mov    -0x440(%rbp),%eax
  400a2f:	0f b7 c0             	movzwl %ax,%eax
  400a32:	89 c7                	mov    %eax,%edi
  400a34:	e8 07 fd ff ff       	callq  400740 <htons@plt>
  400a39:	66 89 85 e2 fb ff ff 	mov    %ax,-0x41e(%rbp)
  400a40:	48 8d 85 f0 fb ff ff 	lea    -0x410(%rbp),%rax
  400a47:	be 00 04 00 00       	mov    $0x400,%esi
  400a4c:	48 89 c7             	mov    %rax,%rdi
  400a4f:	e8 7c fd ff ff       	callq  4007d0 <bzero@plt>
  400a54:	48 8d 85 f0 fb ff ff 	lea    -0x410(%rbp),%rax
  400a5b:	48 b9 61 61 61 61 61 	movabs $0x6161616161616161,%rcx
  400a62:	61 61 61 
  400a65:	48 89 08             	mov    %rcx,(%rax)
  400a68:	48 b9 61 61 61 61 61 	movabs $0x6161616161616161,%rcx
  400a6f:	61 61 61 
  400a72:	48 89 48 08          	mov    %rcx,0x8(%rax)
  400a76:	48 ba 61 61 61 61 61 	movabs $0x6161616161616161,%rdx
  400a7d:	61 61 61 
  400a80:	48 89 50 10          	mov    %rdx,0x10(%rax)
  400a84:	48 be 61 61 61 61 61 	movabs $0x6161616161616161,%rsi
  400a8b:	61 61 61 
  400a8e:	48 89 70 18          	mov    %rsi,0x18(%rax)
  400a92:	48 b9 61 61 61 61 61 	movabs $0x6161616161616161,%rcx
  400a99:	61 61 61 
  400a9c:	48 89 48 20          	mov    %rcx,0x20(%rax)
  400aa0:	48 ba 61 61 61 61 61 	movabs $0x6161616161616161,%rdx
  400aa7:	61 61 61 
  400aaa:	48 89 50 28          	mov    %rdx,0x28(%rax)
  400aae:	48 be 61 61 61 61 61 	movabs $0x6161616161616161,%rsi
  400ab5:	61 61 61 
  400ab8:	48 89 70 30          	mov    %rsi,0x30(%rax)
  400abc:	48 b9 61 61 61 61 61 	movabs $0x6161616161616161,%rcx
  400ac3:	61 61 61 
  400ac6:	48 89 48 38          	mov    %rcx,0x38(%rax)
  400aca:	48 ba 61 61 61 61 61 	movabs $0x6161616161616161,%rdx
  400ad1:	61 61 61 
  400ad4:	48 89 50 40          	mov    %rdx,0x40(%rax)
  400ad8:	48 be 61 61 61 61 61 	movabs $0x6161616161616161,%rsi
  400adf:	61 61 61 
  400ae2:	48 89 70 48          	mov    %rsi,0x48(%rax)
  400ae6:	48 b9 61 61 61 61 61 	movabs $0x6161616161616161,%rcx
  400aed:	61 61 61 
  400af0:	48 89 48 50          	mov    %rcx,0x50(%rax)
  400af4:	48 ba 61 61 61 61 61 	movabs $0x6161616161616161,%rdx
  400afb:	61 61 61 
  400afe:	48 89 50 58          	mov    %rdx,0x58(%rax)
  400b02:	48 be 61 61 61 61 61 	movabs $0x6161616161616161,%rsi
  400b09:	61 61 61 
  400b0c:	48 89 70 60          	mov    %rsi,0x60(%rax)
  400b10:	48 b9 61 61 61 61 61 	movabs $0x6161616161616161,%rcx
  400b17:	61 61 61 
  400b1a:	48 89 48 68          	mov    %rcx,0x68(%rax)
  400b1e:	48 ba 61 61 61 61 61 	movabs $0x6161616161616161,%rdx
  400b25:	61 61 61 
  400b28:	48 89 50 70          	mov    %rdx,0x70(%rax)
  400b2c:	c7 40 78 61 61 61 00 	movl   $0x616161,0x78(%rax)
  400b33:	48 8d 85 f0 fb ff ff 	lea    -0x410(%rbp),%rax
  400b3a:	48 89 c7             	mov    %rax,%rdi
  400b3d:	e8 de fb ff ff       	callq  400720 <strlen@plt>
  400b42:	89 85 c8 fb ff ff    	mov    %eax,-0x438(%rbp)
  400b48:	83 85 c8 fb ff ff 01 	addl   $0x1,-0x438(%rbp)
  400b4f:	8b 85 c8 fb ff ff    	mov    -0x438(%rbp),%eax
  400b55:	48 98                	cltq   
  400b57:	c6 84 05 f0 fb ff ff 	movb   $0xf4,-0x410(%rbp,%rax,1)
  400b5e:	f4 
  400b5f:	83 85 c8 fb ff ff 01 	addl   $0x1,-0x438(%rbp)
  400b66:	8b 85 c8 fb ff ff    	mov    -0x438(%rbp),%eax
  400b6c:	48 98                	cltq   
  400b6e:	c6 84 05 f0 fb ff ff 	movb   $0x86,-0x410(%rbp,%rax,1)
  400b75:	86 
  400b76:	83 85 c8 fb ff ff 01 	addl   $0x1,-0x438(%rbp)
  400b7d:	8b 85 c8 fb ff ff    	mov    -0x438(%rbp),%eax
  400b83:	48 98                	cltq   
  400b85:	c6 84 05 f0 fb ff ff 	movb   $0x4,-0x410(%rbp,%rax,1)
  400b8c:	04 
  400b8d:	83 85 c8 fb ff ff 01 	addl   $0x1,-0x438(%rbp)
  400b94:	8b 85 c8 fb ff ff    	mov    -0x438(%rbp),%eax
  400b9a:	48 98                	cltq   
  400b9c:	c6 84 05 f0 fb ff ff 	movb   $0x8,-0x410(%rbp,%rax,1)
  400ba3:	08 
  400ba4:	c7 85 bc fb ff ff 10 	movl   $0x10,-0x444(%rbp)
  400bab:	00 00 00 
  400bae:	8b 85 bc fb ff ff    	mov    -0x444(%rbp),%eax
  400bb4:	89 c7                	mov    %eax,%edi
  400bb6:	83 85 c8 fb ff ff 01 	addl   $0x1,-0x438(%rbp)
  400bbd:	8b 85 c8 fb ff ff    	mov    -0x438(%rbp),%eax
  400bc3:	48 63 d0             	movslq %eax,%rdx
  400bc6:	48 8d 8d e0 fb ff ff 	lea    -0x420(%rbp),%rcx
  400bcd:	48 8d b5 f0 fb ff ff 	lea    -0x410(%rbp),%rsi
  400bd4:	8b 85 c4 fb ff ff    	mov    -0x43c(%rbp),%eax
  400bda:	41 89 f9             	mov    %edi,%r9d
  400bdd:	49 89 c8             	mov    %rcx,%r8
  400be0:	b9 00 00 00 00       	mov    $0x0,%ecx
  400be5:	89 c7                	mov    %eax,%edi
  400be7:	e8 74 fb ff ff       	callq  400760 <sendto@plt>
  400bec:	89 85 cc fb ff ff    	mov    %eax,-0x434(%rbp)
  400bf2:	83 bd cc fb ff ff 00 	cmpl   $0x0,-0x434(%rbp)
  400bf9:	79 0a                	jns    400c05 <main+0x2dd>
  400bfb:	bf 5e 0d 40 00       	mov    $0x400d5e,%edi
  400c00:	e8 01 fd ff ff       	callq  400906 <error>
  400c05:	48 8d 85 f0 fb ff ff 	lea    -0x410(%rbp),%rax
  400c0c:	48 89 c7             	mov    %rax,%rdi
  400c0f:	e8 0c fb ff ff       	callq  400720 <strlen@plt>
  400c14:	48 89 c7             	mov    %rax,%rdi
  400c17:	48 8d 8d bc fb ff ff 	lea    -0x444(%rbp),%rcx
  400c1e:	48 8d 95 e0 fb ff ff 	lea    -0x420(%rbp),%rdx
  400c25:	48 8d b5 f0 fb ff ff 	lea    -0x410(%rbp),%rsi
  400c2c:	8b 85 c4 fb ff ff    	mov    -0x43c(%rbp),%eax
  400c32:	49 89 c9             	mov    %rcx,%r9
  400c35:	49 89 d0             	mov    %rdx,%r8
  400c38:	b9 00 00 00 00       	mov    $0x0,%ecx
  400c3d:	48 89 fa             	mov    %rdi,%rdx
  400c40:	89 c7                	mov    %eax,%edi
  400c42:	e8 59 fb ff ff       	callq  4007a0 <recvfrom@plt>
  400c47:	89 85 cc fb ff ff    	mov    %eax,-0x434(%rbp)
  400c4d:	83 bd cc fb ff ff 00 	cmpl   $0x0,-0x434(%rbp)
  400c54:	79 0a                	jns    400c60 <main+0x338>
  400c56:	bf 6e 0d 40 00       	mov    $0x400d6e,%edi
  400c5b:	e8 a6 fc ff ff       	callq  400906 <error>
  400c60:	48 8d 85 f0 fb ff ff 	lea    -0x410(%rbp),%rax
  400c67:	48 89 c6             	mov    %rax,%rsi
  400c6a:	bf 80 0d 40 00       	mov    $0x400d80,%edi
  400c6f:	b8 00 00 00 00       	mov    $0x0,%eax
  400c74:	e8 d7 fa ff ff       	callq  400750 <printf@plt>
  400c79:	b8 00 00 00 00       	mov    $0x0,%eax
  400c7e:	48 8b 75 f8          	mov    -0x8(%rbp),%rsi
  400c82:	64 48 33 34 25 28 00 	xor    %fs:0x28,%rsi
  400c89:	00 00 
  400c8b:	74 05                	je     400c92 <main+0x36a>
  400c8d:	e8 9e fa ff ff       	callq  400730 <__stack_chk_fail@plt>
  400c92:	c9                   	leaveq 
  400c93:	c3                   	retq   
  400c94:	66 2e 0f 1f 84 00 00 	nopw   %cs:0x0(%rax,%rax,1)
  400c9b:	00 00 00 
  400c9e:	66 90                	xchg   %ax,%ax

0000000000400ca0 <__libc_csu_init>:
  400ca0:	41 57                	push   %r15
  400ca2:	41 56                	push   %r14
  400ca4:	41 89 ff             	mov    %edi,%r15d
  400ca7:	41 55                	push   %r13
  400ca9:	41 54                	push   %r12
  400cab:	4c 8d 25 5e 11 20 00 	lea    0x20115e(%rip),%r12        # 601e10 <__frame_dummy_init_array_entry>
  400cb2:	55                   	push   %rbp
  400cb3:	48 8d 2d 5e 11 20 00 	lea    0x20115e(%rip),%rbp        # 601e18 <__init_array_end>
  400cba:	53                   	push   %rbx
  400cbb:	49 89 f6             	mov    %rsi,%r14
  400cbe:	49 89 d5             	mov    %rdx,%r13
  400cc1:	4c 29 e5             	sub    %r12,%rbp
  400cc4:	48 83 ec 08          	sub    $0x8,%rsp
  400cc8:	48 c1 fd 03          	sar    $0x3,%rbp
  400ccc:	e8 1f fa ff ff       	callq  4006f0 <_init>
  400cd1:	48 85 ed             	test   %rbp,%rbp
  400cd4:	74 20                	je     400cf6 <__libc_csu_init+0x56>
  400cd6:	31 db                	xor    %ebx,%ebx
  400cd8:	0f 1f 84 00 00 00 00 	nopl   0x0(%rax,%rax,1)
  400cdf:	00 
  400ce0:	4c 89 ea             	mov    %r13,%rdx
  400ce3:	4c 89 f6             	mov    %r14,%rsi
  400ce6:	44 89 ff             	mov    %r15d,%edi
  400ce9:	41 ff 14 dc          	callq  *(%r12,%rbx,8)
  400ced:	48 83 c3 01          	add    $0x1,%rbx
  400cf1:	48 39 eb             	cmp    %rbp,%rbx
  400cf4:	75 ea                	jne    400ce0 <__libc_csu_init+0x40>
  400cf6:	48 83 c4 08          	add    $0x8,%rsp
  400cfa:	5b                   	pop    %rbx
  400cfb:	5d                   	pop    %rbp
  400cfc:	41 5c                	pop    %r12
  400cfe:	41 5d                	pop    %r13
  400d00:	41 5e                	pop    %r14
  400d02:	41 5f                	pop    %r15
  400d04:	c3                   	retq   
  400d05:	90                   	nop
  400d06:	66 2e 0f 1f 84 00 00 	nopw   %cs:0x0(%rax,%rax,1)
  400d0d:	00 00 00 

0000000000400d10 <__libc_csu_fini>:
  400d10:	f3 c3                	repz retq 

Disassembly of section .fini:

0000000000400d14 <_fini>:
  400d14:	48 83 ec 08          	sub    $0x8,%rsp
  400d18:	48 83 c4 08          	add    $0x8,%rsp
  400d1c:	c3                   	retq   

Disassembly of section .init:

0000000000400710 <_init>:
  400710:	48 83 ec 08          	sub    $0x8,%rsp
  400714:	48 8b 05 dd 18 20 00 	mov    0x2018dd(%rip),%rax        # 601ff8 <_DYNAMIC+0x1d0>
  40071b:	48 85 c0             	test   %rax,%rax
  40071e:	74 05                	je     400725 <_init+0x15>
  400720:	e8 1b 01 00 00       	callq  400840 <socket@plt+0x10>
  400725:	48 83 c4 08          	add    $0x8,%rsp
  400729:	c3                   	retq   

Disassembly of section .plt:

0000000000400730 <puts@plt-0x10>:
  400730:	ff 35 d2 18 20 00    	pushq  0x2018d2(%rip)        # 602008 <_GLOBAL_OFFSET_TABLE_+0x8>
  400736:	ff 25 d4 18 20 00    	jmpq   *0x2018d4(%rip)        # 602010 <_GLOBAL_OFFSET_TABLE_+0x10>
  40073c:	0f 1f 40 00          	nopl   0x0(%rax)

0000000000400740 <puts@plt>:
  400740:	ff 25 d2 18 20 00    	jmpq   *0x2018d2(%rip)        # 602018 <_GLOBAL_OFFSET_TABLE_+0x18>
  400746:	68 00 00 00 00       	pushq  $0x0
  40074b:	e9 e0 ff ff ff       	jmpq   400730 <_init+0x20>

0000000000400750 <setsockopt@plt>:
  400750:	ff 25 ca 18 20 00    	jmpq   *0x2018ca(%rip)        # 602020 <_GLOBAL_OFFSET_TABLE_+0x20>
  400756:	68 01 00 00 00       	pushq  $0x1
  40075b:	e9 d0 ff ff ff       	jmpq   400730 <_init+0x20>

0000000000400760 <inet_ntoa@plt>:
  400760:	ff 25 c2 18 20 00    	jmpq   *0x2018c2(%rip)        # 602028 <_GLOBAL_OFFSET_TABLE_+0x28>
  400766:	68 02 00 00 00       	pushq  $0x2
  40076b:	e9 c0 ff ff ff       	jmpq   400730 <_init+0x20>

0000000000400770 <strlen@plt>:
  400770:	ff 25 ba 18 20 00    	jmpq   *0x2018ba(%rip)        # 602030 <_GLOBAL_OFFSET_TABLE_+0x30>
  400776:	68 03 00 00 00       	pushq  $0x3
  40077b:	e9 b0 ff ff ff       	jmpq   400730 <_init+0x20>

0000000000400780 <htons@plt>:
  400780:	ff 25 b2 18 20 00    	jmpq   *0x2018b2(%rip)        # 602038 <_GLOBAL_OFFSET_TABLE_+0x38>
  400786:	68 04 00 00 00       	pushq  $0x4
  40078b:	e9 a0 ff ff ff       	jmpq   400730 <_init+0x20>

0000000000400790 <printf@plt>:
  400790:	ff 25 aa 18 20 00    	jmpq   *0x2018aa(%rip)        # 602040 <_GLOBAL_OFFSET_TABLE_+0x40>
  400796:	68 05 00 00 00       	pushq  $0x5
  40079b:	e9 90 ff ff ff       	jmpq   400730 <_init+0x20>

00000000004007a0 <htonl@plt>:
  4007a0:	ff 25 a2 18 20 00    	jmpq   *0x2018a2(%rip)        # 602048 <_GLOBAL_OFFSET_TABLE_+0x48>
  4007a6:	68 06 00 00 00       	pushq  $0x6
  4007ab:	e9 80 ff ff ff       	jmpq   400730 <_init+0x20>

00000000004007b0 <sendto@plt>:
  4007b0:	ff 25 9a 18 20 00    	jmpq   *0x20189a(%rip)        # 602050 <_GLOBAL_OFFSET_TABLE_+0x50>
  4007b6:	68 07 00 00 00       	pushq  $0x7
  4007bb:	e9 70 ff ff ff       	jmpq   400730 <_init+0x20>

00000000004007c0 <__libc_start_main@plt>:
  4007c0:	ff 25 92 18 20 00    	jmpq   *0x201892(%rip)        # 602058 <_GLOBAL_OFFSET_TABLE_+0x58>
  4007c6:	68 08 00 00 00       	pushq  $0x8
  4007cb:	e9 60 ff ff ff       	jmpq   400730 <_init+0x20>

00000000004007d0 <recvfrom@plt>:
  4007d0:	ff 25 8a 18 20 00    	jmpq   *0x20188a(%rip)        # 602060 <_GLOBAL_OFFSET_TABLE_+0x60>
  4007d6:	68 09 00 00 00       	pushq  $0x9
  4007db:	e9 50 ff ff ff       	jmpq   400730 <_init+0x20>

00000000004007e0 <bind@plt>:
  4007e0:	ff 25 82 18 20 00    	jmpq   *0x201882(%rip)        # 602068 <_GLOBAL_OFFSET_TABLE_+0x68>
  4007e6:	68 0a 00 00 00       	pushq  $0xa
  4007eb:	e9 40 ff ff ff       	jmpq   400730 <_init+0x20>

00000000004007f0 <perror@plt>:
  4007f0:	ff 25 7a 18 20 00    	jmpq   *0x20187a(%rip)        # 602070 <_GLOBAL_OFFSET_TABLE_+0x70>
  4007f6:	68 0b 00 00 00       	pushq  $0xb
  4007fb:	e9 30 ff ff ff       	jmpq   400730 <_init+0x20>

0000000000400800 <bzero@plt>:
  400800:	ff 25 72 18 20 00    	jmpq   *0x201872(%rip)        # 602078 <_GLOBAL_OFFSET_TABLE_+0x78>
  400806:	68 0c 00 00 00       	pushq  $0xc
  40080b:	e9 20 ff ff ff       	jmpq   400730 <_init+0x20>

0000000000400810 <gethostbyaddr@plt>:
  400810:	ff 25 6a 18 20 00    	jmpq   *0x20186a(%rip)        # 602080 <_GLOBAL_OFFSET_TABLE_+0x80>
  400816:	68 0d 00 00 00       	pushq  $0xd
  40081b:	e9 10 ff ff ff       	jmpq   400730 <_init+0x20>

0000000000400820 <exit@plt>:
  400820:	ff 25 62 18 20 00    	jmpq   *0x201862(%rip)        # 602088 <_GLOBAL_OFFSET_TABLE_+0x88>
  400826:	68 0e 00 00 00       	pushq  $0xe
  40082b:	e9 00 ff ff ff       	jmpq   400730 <_init+0x20>

0000000000400830 <socket@plt>:
  400830:	ff 25 5a 18 20 00    	jmpq   *0x20185a(%rip)        # 602090 <_GLOBAL_OFFSET_TABLE_+0x90>
  400836:	68 0f 00 00 00       	pushq  $0xf
  40083b:	e9 f0 fe ff ff       	jmpq   400730 <_init+0x20>

Disassembly of section .plt.got:

0000000000400840 <.plt.got>:
  400840:	ff 25 b2 17 20 00    	jmpq   *0x2017b2(%rip)        # 601ff8 <_DYNAMIC+0x1d0>
  400846:	66 90                	xchg   %ax,%ax

Disassembly of section .text:

0000000000400850 <_start>:
  400850:	31 ed                	xor    %ebp,%ebp
  400852:	49 89 d1             	mov    %rdx,%r9
  400855:	5e                   	pop    %rsi
  400856:	48 89 e2             	mov    %rsp,%rdx
  400859:	48 83 e4 f0          	and    $0xfffffffffffffff0,%rsp
  40085d:	50                   	push   %rax
  40085e:	54                   	push   %rsp
  40085f:	49 c7 c0 10 0c 40 00 	mov    $0x400c10,%r8
  400866:	48 c7 c1 a0 0b 40 00 	mov    $0x400ba0,%rcx
  40086d:	48 c7 c7 8a 09 40 00 	mov    $0x40098a,%rdi
  400874:	e8 47 ff ff ff       	callq  4007c0 <__libc_start_main@plt>
  400879:	f4                   	hlt    
  40087a:	66 0f 1f 44 00 00    	nopw   0x0(%rax,%rax,1)

0000000000400880 <deregister_tm_clones>:
  400880:	b8 af 20 60 00       	mov    $0x6020af,%eax
  400885:	55                   	push   %rbp
  400886:	48 2d a8 20 60 00    	sub    $0x6020a8,%rax
  40088c:	48 83 f8 0e          	cmp    $0xe,%rax
  400890:	48 89 e5             	mov    %rsp,%rbp
  400893:	76 1b                	jbe    4008b0 <deregister_tm_clones+0x30>
  400895:	b8 00 00 00 00       	mov    $0x0,%eax
  40089a:	48 85 c0             	test   %rax,%rax
  40089d:	74 11                	je     4008b0 <deregister_tm_clones+0x30>
  40089f:	5d                   	pop    %rbp
  4008a0:	bf a8 20 60 00       	mov    $0x6020a8,%edi
  4008a5:	ff e0                	jmpq   *%rax
  4008a7:	66 0f 1f 84 00 00 00 	nopw   0x0(%rax,%rax,1)
  4008ae:	00 00 
  4008b0:	5d                   	pop    %rbp
  4008b1:	c3                   	retq   
  4008b2:	0f 1f 40 00          	nopl   0x0(%rax)
  4008b6:	66 2e 0f 1f 84 00 00 	nopw   %cs:0x0(%rax,%rax,1)
  4008bd:	00 00 00 

00000000004008c0 <register_tm_clones>:
  4008c0:	be a8 20 60 00       	mov    $0x6020a8,%esi
  4008c5:	55                   	push   %rbp
  4008c6:	48 81 ee a8 20 60 00 	sub    $0x6020a8,%rsi
  4008cd:	48 c1 fe 03          	sar    $0x3,%rsi
  4008d1:	48 89 e5             	mov    %rsp,%rbp
  4008d4:	48 89 f0             	mov    %rsi,%rax
  4008d7:	48 c1 e8 3f          	shr    $0x3f,%rax
  4008db:	48 01 c6             	add    %rax,%rsi
  4008de:	48 d1 fe             	sar    %rsi
  4008e1:	74 15                	je     4008f8 <register_tm_clones+0x38>
  4008e3:	b8 00 00 00 00       	mov    $0x0,%eax
  4008e8:	48 85 c0             	test   %rax,%rax
  4008eb:	74 0b                	je     4008f8 <register_tm_clones+0x38>
  4008ed:	5d                   	pop    %rbp
  4008ee:	bf a8 20 60 00       	mov    $0x6020a8,%edi
  4008f3:	ff e0                	jmpq   *%rax
  4008f5:	0f 1f 00             	nopl   (%rax)
  4008f8:	5d                   	pop    %rbp
  4008f9:	c3                   	retq   
  4008fa:	66 0f 1f 44 00 00    	nopw   0x0(%rax,%rax,1)

0000000000400900 <__do_global_dtors_aux>:
  400900:	80 3d b9 17 20 00 00 	cmpb   $0x0,0x2017b9(%rip)        # 6020c0 <completed.7585>
  400907:	75 11                	jne    40091a <__do_global_dtors_aux+0x1a>
  400909:	55                   	push   %rbp
  40090a:	48 89 e5             	mov    %rsp,%rbp
  40090d:	e8 6e ff ff ff       	callq  400880 <deregister_tm_clones>
  400912:	5d                   	pop    %rbp
  400913:	c6 05 a6 17 20 00 01 	movb   $0x1,0x2017a6(%rip)        # 6020c0 <completed.7585>
  40091a:	f3 c3                	repz retq 
  40091c:	0f 1f 40 00          	nopl   0x0(%rax)

0000000000400920 <frame_dummy>:
  400920:	bf 20 1e 60 00       	mov    $0x601e20,%edi
  400925:	48 83 3f 00          	cmpq   $0x0,(%rdi)
  400929:	75 05                	jne    400930 <frame_dummy+0x10>
  40092b:	eb 93                	jmp    4008c0 <register_tm_clones>
  40092d:	0f 1f 00             	nopl   (%rax)
  400930:	b8 00 00 00 00       	mov    $0x0,%eax
  400935:	48 85 c0             	test   %rax,%rax
  400938:	74 f1                	je     40092b <frame_dummy+0xb>
  40093a:	55                   	push   %rbp
  40093b:	48 89 e5             	mov    %rsp,%rbp
  40093e:	ff d0                	callq  *%rax
  400940:	5d                   	pop    %rbp
  400941:	e9 7a ff ff ff       	jmpq   4008c0 <register_tm_clones>

0000000000400946 <fazbarulho1>:
  400946:	55                   	push   %rbp
  400947:	48 89 e5             	mov    %rsp,%rbp
  40094a:	bf 28 0c 40 00       	mov    $0x400c28,%edi
  40094f:	e8 ec fd ff ff       	callq  400740 <puts@plt>
  400954:	90                   	nop
  400955:	5d                   	pop    %rbp
  400956:	c3                   	retq   

0000000000400957 <pvtot>:
  400957:	55                   	push   %rbp
  400958:	48 89 e5             	mov    %rsp,%rbp
  40095b:	bf 30 0c 40 00       	mov    $0x400c30,%edi
  400960:	e8 db fd ff ff       	callq  400740 <puts@plt>
  400965:	90                   	nop
  400966:	5d                   	pop    %rbp
  400967:	c3                   	retq   

0000000000400968 <error>:
  400968:	55                   	push   %rbp
  400969:	48 89 e5             	mov    %rsp,%rbp
  40096c:	48 83 ec 10          	sub    $0x10,%rsp
  400970:	48 89 7d f8          	mov    %rdi,-0x8(%rbp)
  400974:	48 8b 45 f8          	mov    -0x8(%rbp),%rax
  400978:	48 89 c7             	mov    %rax,%rdi
  40097b:	e8 70 fe ff ff       	callq  4007f0 <perror@plt>
  400980:	bf 01 00 00 00       	mov    $0x1,%edi
  400985:	e8 96 fe ff ff       	callq  400820 <exit@plt>

000000000040098a <main>:
  40098a:	55                   	push   %rbp
  40098b:	48 89 e5             	mov    %rsp,%rbp
  40098e:	53                   	push   %rbx
  40098f:	48 83 ec 78          	sub    $0x78,%rsp
  400993:	89 7d 8c             	mov    %edi,-0x74(%rbp)
  400996:	48 89 75 80          	mov    %rsi,-0x80(%rbp)
  40099a:	64 48 8b 04 25 28 00 	mov    %fs:0x28,%rax
  4009a1:	00 00 
  4009a3:	48 89 45 e8          	mov    %rax,-0x18(%rbp)
  4009a7:	31 c0                	xor    %eax,%eax
  4009a9:	48 c7 05 ac 17 20 00 	movq   $0x400946,0x2017ac(%rip)        # 602160 <cachorros>
  4009b0:	46 09 40 00 
  4009b4:	c7 45 a4 58 98 00 00 	movl   $0x9858,-0x5c(%rbp)
  4009bb:	ba 00 00 00 00       	mov    $0x0,%edx
  4009c0:	be 02 00 00 00       	mov    $0x2,%esi
  4009c5:	bf 02 00 00 00       	mov    $0x2,%edi
  4009ca:	e8 61 fe ff ff       	callq  400830 <socket@plt>
  4009cf:	89 45 a8             	mov    %eax,-0x58(%rbp)
  4009d2:	83 7d a8 00          	cmpl   $0x0,-0x58(%rbp)
  4009d6:	79 0a                	jns    4009e2 <main+0x58>
  4009d8:	bf 54 0c 40 00       	mov    $0x400c54,%edi
  4009dd:	e8 86 ff ff ff       	callq  400968 <error>
  4009e2:	c7 45 a0 01 00 00 00 	movl   $0x1,-0x60(%rbp)
  4009e9:	48 8d 55 a0          	lea    -0x60(%rbp),%rdx
  4009ed:	8b 45 a8             	mov    -0x58(%rbp),%eax
  4009f0:	41 b8 04 00 00 00    	mov    $0x4,%r8d
  4009f6:	48 89 d1             	mov    %rdx,%rcx
  4009f9:	ba 02 00 00 00       	mov    $0x2,%edx
  4009fe:	be 01 00 00 00       	mov    $0x1,%esi
  400a03:	89 c7                	mov    %eax,%edi
  400a05:	e8 46 fd ff ff       	callq  400750 <setsockopt@plt>
  400a0a:	48 8d 45 c0          	lea    -0x40(%rbp),%rax
  400a0e:	be 10 00 00 00       	mov    $0x10,%esi
  400a13:	48 89 c7             	mov    %rax,%rdi
  400a16:	e8 e5 fd ff ff       	callq  400800 <bzero@plt>
  400a1b:	66 c7 45 c0 02 00    	movw   $0x2,-0x40(%rbp)
  400a21:	bf 00 00 00 00       	mov    $0x0,%edi
  400a26:	e8 75 fd ff ff       	callq  4007a0 <htonl@plt>
  400a2b:	89 45 c4             	mov    %eax,-0x3c(%rbp)
  400a2e:	8b 45 a4             	mov    -0x5c(%rbp),%eax
  400a31:	0f b7 c0             	movzwl %ax,%eax
  400a34:	89 c7                	mov    %eax,%edi
  400a36:	e8 45 fd ff ff       	callq  400780 <htons@plt>
  400a3b:	66 89 45 c2          	mov    %ax,-0x3e(%rbp)
  400a3f:	48 8d 4d c0          	lea    -0x40(%rbp),%rcx
  400a43:	8b 45 a8             	mov    -0x58(%rbp),%eax
  400a46:	ba 10 00 00 00       	mov    $0x10,%edx
  400a4b:	48 89 ce             	mov    %rcx,%rsi
  400a4e:	89 c7                	mov    %eax,%edi
  400a50:	e8 8b fd ff ff       	callq  4007e0 <bind@plt>
  400a55:	85 c0                	test   %eax,%eax
  400a57:	79 0a                	jns    400a63 <main+0xd9>
  400a59:	bf 69 0c 40 00       	mov    $0x400c69,%edi
  400a5e:	e8 05 ff ff ff       	callq  400968 <error>
  400a63:	c7 45 9c 10 00 00 00 	movl   $0x10,-0x64(%rbp)
  400a6a:	48 8d 4d 9c          	lea    -0x64(%rbp),%rcx
  400a6e:	48 8d 55 d0          	lea    -0x30(%rbp),%rdx
  400a72:	8b 45 a8             	mov    -0x58(%rbp),%eax
  400a75:	49 89 c9             	mov    %rcx,%r9
  400a78:	49 89 d0             	mov    %rdx,%r8
  400a7b:	b9 00 00 00 00       	mov    $0x0,%ecx
  400a80:	ba 00 04 00 00       	mov    $0x400,%edx
  400a85:	be e0 20 60 00       	mov    $0x6020e0,%esi
  400a8a:	89 c7                	mov    %eax,%edi
  400a8c:	e8 3f fd ff ff       	callq  4007d0 <recvfrom@plt>
  400a91:	89 45 ac             	mov    %eax,-0x54(%rbp)
  400a94:	83 7d ac 00          	cmpl   $0x0,-0x54(%rbp)
  400a98:	79 0a                	jns    400aa4 <main+0x11a>
  400a9a:	bf 7a 0c 40 00       	mov    $0x400c7a,%edi
  400a9f:	e8 c4 fe ff ff       	callq  400968 <error>
  400aa4:	48 8b 15 b5 16 20 00 	mov    0x2016b5(%rip),%rdx        # 602160 <cachorros>
  400aab:	b8 00 00 00 00       	mov    $0x0,%eax
  400ab0:	ff d2                	callq  *%rdx
  400ab2:	48 8d 45 d0          	lea    -0x30(%rbp),%rax
  400ab6:	48 83 c0 04          	add    $0x4,%rax
  400aba:	ba 02 00 00 00       	mov    $0x2,%edx
  400abf:	be 04 00 00 00       	mov    $0x4,%esi
  400ac4:	48 89 c7             	mov    %rax,%rdi
  400ac7:	e8 44 fd ff ff       	callq  400810 <gethostbyaddr@plt>
  400acc:	48 89 45 b0          	mov    %rax,-0x50(%rbp)
  400ad0:	48 83 7d b0 00       	cmpq   $0x0,-0x50(%rbp)
  400ad5:	75 0a                	jne    400ae1 <main+0x157>
  400ad7:	bf 8c 0c 40 00       	mov    $0x400c8c,%edi
  400adc:	e8 87 fe ff ff       	callq  400968 <error>
  400ae1:	8b 45 d4             	mov    -0x2c(%rbp),%eax
  400ae4:	89 c7                	mov    %eax,%edi
  400ae6:	e8 75 fc ff ff       	callq  400760 <inet_ntoa@plt>
  400aeb:	48 89 45 b8          	mov    %rax,-0x48(%rbp)
  400aef:	48 83 7d b8 00       	cmpq   $0x0,-0x48(%rbp)
  400af4:	75 0a                	jne    400b00 <main+0x176>
  400af6:	bf a3 0c 40 00       	mov    $0x400ca3,%edi
  400afb:	e8 68 fe ff ff       	callq  400968 <error>
  400b00:	48 8b 45 b0          	mov    -0x50(%rbp),%rax
  400b04:	48 8b 00             	mov    (%rax),%rax
  400b07:	48 8b 55 b8          	mov    -0x48(%rbp),%rdx
  400b0b:	48 89 c6             	mov    %rax,%rsi
  400b0e:	bf b8 0c 40 00       	mov    $0x400cb8,%edi
  400b13:	b8 00 00 00 00       	mov    $0x0,%eax
  400b18:	e8 73 fc ff ff       	callq  400790 <printf@plt>
  400b1d:	bf e0 20 60 00       	mov    $0x6020e0,%edi
  400b22:	e8 49 fc ff ff       	callq  400770 <strlen@plt>
  400b27:	48 89 c6             	mov    %rax,%rsi
  400b2a:	8b 45 ac             	mov    -0x54(%rbp),%eax
  400b2d:	b9 e0 20 60 00       	mov    $0x6020e0,%ecx
  400b32:	89 c2                	mov    %eax,%edx
  400b34:	bf e0 0c 40 00       	mov    $0x400ce0,%edi
  400b39:	b8 00 00 00 00       	mov    $0x0,%eax
  400b3e:	e8 4d fc ff ff       	callq  400790 <printf@plt>
  400b43:	8b 45 9c             	mov    -0x64(%rbp),%eax
  400b46:	89 c3                	mov    %eax,%ebx
  400b48:	bf e0 20 60 00       	mov    $0x6020e0,%edi
  400b4d:	e8 1e fc ff ff       	callq  400770 <strlen@plt>
  400b52:	48 89 c6             	mov    %rax,%rsi
  400b55:	48 8d 55 d0          	lea    -0x30(%rbp),%rdx
  400b59:	8b 45 a8             	mov    -0x58(%rbp),%eax
  400b5c:	41 89 d9             	mov    %ebx,%r9d
  400b5f:	49 89 d0             	mov    %rdx,%r8
  400b62:	b9 00 00 00 00       	mov    $0x0,%ecx
  400b67:	48 89 f2             	mov    %rsi,%rdx
  400b6a:	be e0 20 60 00       	mov    $0x6020e0,%esi
  400b6f:	89 c7                	mov    %eax,%edi
  400b71:	e8 3a fc ff ff       	callq  4007b0 <sendto@plt>
  400b76:	89 45 ac             	mov    %eax,-0x54(%rbp)
  400b79:	83 7d ac 00          	cmpl   $0x0,-0x54(%rbp)
  400b7d:	0f 89 e7 fe ff ff    	jns    400a6a <main+0xe0>
  400b83:	bf 01 0d 40 00       	mov    $0x400d01,%edi
  400b88:	e8 db fd ff ff       	callq  400968 <error>
  400b8d:	e9 d8 fe ff ff       	jmpq   400a6a <main+0xe0>
  400b92:	66 2e 0f 1f 84 00 00 	nopw   %cs:0x0(%rax,%rax,1)
  400b99:	00 00 00 
  400b9c:	0f 1f 40 00          	nopl   0x0(%rax)

0000000000400ba0 <__libc_csu_init>:
  400ba0:	41 57                	push   %r15
  400ba2:	41 56                	push   %r14
  400ba4:	41 89 ff             	mov    %edi,%r15d
  400ba7:	41 55                	push   %r13
  400ba9:	41 54                	push   %r12
  400bab:	4c 8d 25 5e 12 20 00 	lea    0x20125e(%rip),%r12        # 601e10 <__frame_dummy_init_array_entry>
  400bb2:	55                   	push   %rbp
  400bb3:	48 8d 2d 5e 12 20 00 	lea    0x20125e(%rip),%rbp        # 601e18 <__init_array_end>
  400bba:	53                   	push   %rbx
  400bbb:	49 89 f6             	mov    %rsi,%r14
  400bbe:	49 89 d5             	mov    %rdx,%r13
  400bc1:	4c 29 e5             	sub    %r12,%rbp
  400bc4:	48 83 ec 08          	sub    $0x8,%rsp
  400bc8:	48 c1 fd 03          	sar    $0x3,%rbp
  400bcc:	e8 3f fb ff ff       	callq  400710 <_init>
  400bd1:	48 85 ed             	test   %rbp,%rbp
  400bd4:	74 20                	je     400bf6 <__libc_csu_init+0x56>
  400bd6:	31 db                	xor    %ebx,%ebx
  400bd8:	0f 1f 84 00 00 00 00 	nopl   0x0(%rax,%rax,1)
  400bdf:	00 
  400be0:	4c 89 ea             	mov    %r13,%rdx
  400be3:	4c 89 f6             	mov    %r14,%rsi
  400be6:	44 89 ff             	mov    %r15d,%edi
  400be9:	41 ff 14 dc          	callq  *(%r12,%rbx,8)
  400bed:	48 83 c3 01          	add    $0x1,%rbx
  400bf1:	48 39 eb             	cmp    %rbp,%rbx
  400bf4:	75 ea                	jne    400be0 <__libc_csu_init+0x40>
  400bf6:	48 83 c4 08          	add    $0x8,%rsp
  400bfa:	5b                   	pop    %rbx
  400bfb:	5d                   	pop    %rbp
  400bfc:	41 5c                	pop    %r12
  400bfe:	41 5d                	pop    %r13
  400c00:	41 5e                	pop    %r14
  400c02:	41 5f                	pop    %r15
  400c04:	c3                   	retq   
  400c05:	90                   	nop
  400c06:	66 2e 0f 1f 84 00 00 	nopw   %cs:0x0(%rax,%rax,1)
  400c0d:	00 00 00 

0000000000400c10 <__libc_csu_fini>:
  400c10:	f3 c3                	repz retq 

Disassembly of section .fini:

0000000000400c14 <_fini>:
  400c14:	48 83 ec 08          	sub    $0x8,%rsp
  400c18:	48 83 c4 08          	add    $0x8,%rsp
  400c1c:	c3                   	retq   
